; Function Attrs: null_pointer_is_valid sspstrong uwtable
define noalias noundef ptr @wmem_map_new(ptr noundef %0, ptr noundef %1, ptr noundef %2) local_unnamed_addr #0 {
  %4 = tail call noalias dereferenceable_or_null(64) ptr @wmem_alloc(ptr noundef %0, i64 noundef 64) #7
  %5 = getelementptr inbounds nuw i8, ptr %4, i64 24
  store ptr %1, ptr %5, align 8
  %6 = getelementptr inbounds nuw i8, ptr %4, i64 32
  store ptr %2, ptr %6, align 8
  %7 = getelementptr inbounds nuw i8, ptr %4, i64 48
  store ptr %0, ptr %7, align 8
  %8 = getelementptr inbounds nuw i8, ptr %4, i64 56
  store ptr %0, ptr %8, align 8
  store i32 0, ptr %4, align 8
  %9 = getelementptr inbounds nuw i8, ptr %4, i64 16
  store ptr null, ptr %9, align 8
  ret ptr %4
}